; Function Attrs: mustprogress uwtable
define noundef signext i8 @_ZN6icu_7512RegexPattern7matchesEP5UTextS2_R11UParseErrorR10UErrorCode(ptr noundef %regex, ptr noundef %input, ptr noundef nonnull align 4 dereferenceable(72) %pe, ptr noundef nonnull align 4 dereferenceable(4) %status) local_unnamed_addr #1 align 2 personality ptr @__gxx_personality_v0 {
entry:
  %0 = load i32, ptr %status, align 4
  %cmp.i = icmp slt i32 %0, 1
  br i1 %cmp.i, label %if.end, label %return

if.end:                                           ; preds = %entry
  %call1 = tail call noundef ptr @_ZN6icu_7512RegexPattern7compileEP5UTextjR11UParseErrorR10UErrorCode(ptr noundef %regex, i32 noundef 0, ptr noundef nonnull align 4 dereferenceable(72) %pe, ptr noundef nonnull align 4 dereferenceable(4) %status)
  %1 = load i32, ptr %status, align 4
  %cmp.i.i = icmp slt i32 %1, 1
  br i1 %cmp.i.i, label %if.end.i, label %delete.notnull10

if.end.i:                                         ; preds = %if.end
  %fDeferredStatus.i = getelementptr inbounds i8, ptr %call1, i64 120
  %2 = load i32, ptr %fDeferredStatus.i, align 8
  %cmp.i4.i = icmp slt i32 %2, 1
  br i1 %cmp.i4.i, label %if.end6.i, label %return.sink.split.i

if.end6.i:                                        ; preds = %if.end.i
  %call7.i = tail call noundef ptr @_ZN6icu_757UMemorynwEm(i64 noundef 336) #11
  %new.isnull.i = icmp eq ptr %call7.i, null
  br i1 %new.isnull.i, label %return.sink.split.i, label %new.notnull.i

new.notnull.i:                                    ; preds = %if.end6.i
  invoke void @_ZN6icu_7512RegexMatcherC1EPKNS_12RegexPatternE(ptr noundef nonnull align 8 dereferenceable(336) %call7.i, ptr noundef nonnull %call1)
          to label %_ZNK6icu_7512RegexPattern7matcherER10UErrorCode.exit unwind label %lpad.i

lpad.i:                                           ; preds = %new.notnull.i
  %3 = landingpad { ptr, i32 }
          cleanup
  tail call void @_ZN6icu_757UMemorydlEPv(ptr noundef nonnull %call7.i) #11
  resume { ptr, i32 } %3

return.sink.split.i:                              ; preds = %if.end6.i, %if.end.i
  %.sink.i = phi i32 [ %2, %if.end.i ], [ 7, %if.end6.i ]
  store i32 %.sink.i, ptr %status, align 4
  br label %delete.notnull10

_ZNK6icu_7512RegexPattern7matcherER10UErrorCode.exit: ; preds = %new.notnull.i
  %.pre = load i32, ptr %status, align 4
  %4 = icmp sgt i32 %.pre, 0
  br i1 %4, label %delete.notnull, label %if.then5

if.then5:                                         ; preds = %_ZNK6icu_7512RegexPattern7matcherER10UErrorCode.exit
  %call6 = tail call noundef nonnull align 8 dereferenceable(336) ptr @_ZN6icu_7512RegexMatcher5resetEP5UText(ptr noundef nonnull align 8 dereferenceable(336) %call7.i, ptr noundef %input)
  %call7 = tail call noundef signext i8 @_ZN6icu_7512RegexMatcher7matchesER10UErrorCode(ptr noundef nonnull align 8 dereferenceable(336) %call7.i, ptr noundef nonnull align 4 dereferenceable(4) %status)
  br label %delete.notnull

delete.notnull:                                   ; preds = %if.then5, %_ZNK6icu_7512RegexPattern7matcherER10UErrorCode.exit
  %retVal.0.ph = phi i8 [ 0, %_ZNK6icu_7512RegexPattern7matcherER10UErrorCode.exit ], [ %call7, %if.then5 ]
  tail call void @_ZN6icu_7512RegexMatcherD1Ev(ptr noundef nonnull align 8 dereferenceable(336) %call7.i) #11
  tail call void @_ZN6icu_757UMemorydlEPv(ptr noundef nonnull %call7.i) #11
  br label %delete.notnull10

delete.notnull10:                                 ; preds = %return.sink.split.i, %if.end, %delete.notnull
  %retVal.018 = phi i8 [ %retVal.0.ph, %delete.notnull ], [ 0, %if.end ], [ 0, %return.sink.split.i ]
  tail call void @_ZN6icu_7512RegexPatternD1Ev(ptr noundef nonnull align 8 dereferenceable(200) %call1) #11
  tail call void @_ZN6icu_757UMemorydlEPv(ptr noundef nonnull %call1) #11
  br label %return

return:                                           ; preds = %entry, %delete.notnull10
  %retval.0 = phi i8 [ %retVal.018, %delete.notnull10 ], [ 0, %entry ]
  ret i8 %retval.0
}